; ModuleID = '33/47.c'
source_filename = "33/47.c"
target datalayout = "e-m:e-p270:32:32-p271:32:32-p272:64:64-i64:64-f80:128-n8:16:32:64-S128"
target triple = "x86_64-pc-linux-gnu"

@.str = private unnamed_addr constant [3 x i8] c"%d\00", align 1
@.str.1 = private unnamed_addr constant [3 x i8] c"%s\00", align 1
@.str.2 = private unnamed_addr constant [4 x i8] c"%s\0A\00", align 1

; Function Attrs: noinline nounwind uwtable
define dso_local i32 @main() #0 {
  %1 = alloca i32, align 4
  %2 = alloca [1000 x [300 x i8]], align 16
  %3 = alloca [1000 x [300 x i8]], align 16
  %4 = alloca i32, align 4
  %5 = alloca i32, align 4
  %6 = alloca i32, align 4
  %7 = alloca i32, align 4
  store i32 0, i32* %1, align 4
  store i32 0, i32* %7, align 4
  %8 = call i32 (i8*, ...) @__isoc99_scanf(i8* getelementptr inbounds ([3 x i8], [3 x i8]* @.str, i64 0, i64 0), i32* %6)
  store i32 0, i32* %4, align 4
  br label %9

9:                                                ; preds = %19, %0
  %10 = load i32, i32* %4, align 4
  %11 = load i32, i32* %6, align 4
  %12 = icmp slt i32 %10, %11
  br i1 %12, label %13, label %22

13:                                               ; preds = %9
  %14 = load i32, i32* %4, align 4
  %15 = sext i32 %14 to i64
  %16 = getelementptr inbounds [1000 x [300 x i8]], [1000 x [300 x i8]]* %2, i64 0, i64 %15
  %17 = getelementptr inbounds [300 x i8], [300 x i8]* %16, i64 0, i64 0
  %18 = call i32 (i8*, ...) @__isoc99_scanf(i8* getelementptr inbounds ([3 x i8], [3 x i8]* @.str.1, i64 0, i64 0), i8* %17)
  br label %19

19:                                               ; preds = %13
  %20 = load i32, i32* %4, align 4
  %21 = add nsw i32 %20, 1
  store i32 %21, i32* %4, align 4
  br label %9

22:                                               ; preds = %9
  store i32 0, i32* %4, align 4
  br label %23

23:                                               ; preds = %117, %22
  %24 = load i32, i32* %4, align 4
  %25 = load i32, i32* %6, align 4
  %26 = icmp slt i32 %24, %25
  br i1 %26, label %27, label %120

27:                                               ; preds = %23
  %28 = load i32, i32* %4, align 4
  %29 = sext i32 %28 to i64
  %30 = getelementptr inbounds [1000 x [300 x i8]], [1000 x [300 x i8]]* %2, i64 0, i64 %29
  %31 = getelementptr inbounds [300 x i8], [300 x i8]* %30, i64 0, i64 0
  %32 = call i64 @strlen(i8* %31) #3
  %33 = trunc i64 %32 to i32
  store i32 %33, i32* %7, align 4
  store i32 0, i32* %5, align 4
  br label %34

34:                                               ; preds = %107, %27
  %35 = load i32, i32* %5, align 4
  %36 = load i32, i32* %7, align 4
  %37 = icmp slt i32 %35, %36
  br i1 %37, label %38, label %110

38:                                               ; preds = %34
  %39 = load i32, i32* %4, align 4
  %40 = sext i32 %39 to i64
  %41 = getelementptr inbounds [1000 x [300 x i8]], [1000 x [300 x i8]]* %2, i64 0, i64 %40
  %42 = load i32, i32* %5, align 4
  %43 = sext i32 %42 to i64
  %44 = getelementptr inbounds [300 x i8], [300 x i8]* %41, i64 0, i64 %43
  %45 = load i8, i8* %44, align 1
  %46 = sext i8 %45 to i32
  %47 = icmp eq i32 %46, 65
  br i1 %47, label %48, label %55

48:                                               ; preds = %38
  %49 = load i32, i32* %4, align 4
  %50 = sext i32 %49 to i64
  %51 = getelementptr inbounds [1000 x [300 x i8]], [1000 x [300 x i8]]* %3, i64 0, i64 %50
  %52 = load i32, i32* %5, align 4
  %53 = sext i32 %52 to i64
  %54 = getelementptr inbounds [300 x i8], [300 x i8]* %51, i64 0, i64 %53
  store i8 84, i8* %54, align 1
  br label %55

55:                                               ; preds = %48, %38
  %56 = load i32, i32* %4, align 4
  %57 = sext i32 %56 to i64
  %58 = getelementptr inbounds [1000 x [300 x i8]], [1000 x [300 x i8]]* %2, i64 0, i64 %57
  %59 = load i32, i32* %5, align 4
  %60 = sext i32 %59 to i64
  %61 = getelementptr inbounds [300 x i8], [300 x i8]* %58, i64 0, i64 %60
  %62 = load i8, i8* %61, align 1
  %63 = sext i8 %62 to i32
  %64 = icmp eq i32 %63, 84
  br i1 %64, label %65, label %72

65:                                               ; preds = %55
  %66 = load i32, i32* %4, align 4
  %67 = sext i32 %66 to i64
  %68 = getelementptr inbounds [1000 x [300 x i8]], [1000 x [300 x i8]]* %3, i64 0, i64 %67
  %69 = load i32, i32* %5, align 4
  %70 = sext i32 %69 to i64
  %71 = getelementptr inbounds [300 x i8], [300 x i8]* %68, i64 0, i64 %70
  store i8 65, i8* %71, align 1
  br label %72

72:                                               ; preds = %65, %55
  %73 = load i32, i32* %4, align 4
  %74 = sext i32 %73 to i64
  %75 = getelementptr inbounds [1000 x [300 x i8]], [1000 x [300 x i8]]* %2, i64 0, i64 %74
  %76 = load i32, i32* %5, align 4
  %77 = sext i32 %76 to i64
  %78 = getelementptr inbounds [300 x i8], [300 x i8]* %75, i64 0, i64 %77
  %79 = load i8, i8* %78, align 1
  %80 = sext i8 %79 to i32
  %81 = icmp eq i32 %80, 67
  br i1 %81, label %82, label %89

82:                                               ; preds = %72
  %83 = load i32, i32* %4, align 4
  %84 = sext i32 %83 to i64
  %85 = getelementptr inbounds [1000 x [300 x i8]], [1000 x [300 x i8]]* %3, i64 0, i64 %84
  %86 = load i32, i32* %5, align 4
  %87 = sext i32 %86 to i64
  %88 = getelementptr inbounds [300 x i8], [300 x i8]* %85, i64 0, i64 %87
  store i8 71, i8* %88, align 1
  br label %89

89:                                               ; preds = %82, %72
  %90 = load i32, i32* %4, align 4
  %91 = sext i32 %90 to i64
  %92 = getelementptr inbounds [1000 x [300 x i8]], [1000 x [300 x i8]]* %2, i64 0, i64 %91
  %93 = load i32, i32* %5, align 4
  %94 = sext i32 %93 to i64
  %95 = getelementptr inbounds [300 x i8], [300 x i8]* %92, i64 0, i64 %94
  %96 = load i8, i8* %95, align 1
  %97 = sext i8 %96 to i32
  %98 = icmp eq i32 %97, 71
  br i1 %98, label %99, label %106

99:                                               ; preds = %89
  %100 = load i32, i32* %4, align 4
  %101 = sext i32 %100 to i64
  %102 = getelementptr inbounds [1000 x [300 x i8]], [1000 x [300 x i8]]* %3, i64 0, i64 %101
  %103 = load i32, i32* %5, align 4
  %104 = sext i32 %103 to i64
  %105 = getelementptr inbounds [300 x i8], [300 x i8]* %102, i64 0, i64 %104
  store i8 67, i8* %105, align 1
  br label %106

106:                                              ; preds = %99, %89
  br label %107

107:                                              ; preds = %106
  %108 = load i32, i32* %5, align 4
  %109 = add nsw i32 %108, 1
  store i32 %109, i32* %5, align 4
  br label %34

110:                                              ; preds = %34
  %111 = load i32, i32* %4, align 4
  %112 = sext i32 %111 to i64
  %113 = getelementptr inbounds [1000 x [300 x i8]], [1000 x [300 x i8]]* %3, i64 0, i64 %112
  %114 = load i32, i32* %7, align 4
  %115 = sext i32 %114 to i64
  %116 = getelementptr inbounds [300 x i8], [300 x i8]* %113, i64 0, i64 %115
  store i8 0, i8* %116, align 1
  br label %117

117:                                              ; preds = %110
  %118 = load i32, i32* %4, align 4
  %119 = add nsw i32 %118, 1
  store i32 %119, i32* %4, align 4
  br label %23

120:                                              ; preds = %23
  store i32 0, i32* %4, align 4
  br label %121

121:                                              ; preds = %131, %120
  %122 = load i32, i32* %4, align 4
  %123 = load i32, i32* %6, align 4
  %124 = icmp slt i32 %122, %123
  br i1 %124, label %125, label %134

125:                                              ; preds = %121
  %126 = load i32, i32* %4, align 4
  %127 = sext i32 %126 to i64
  %128 = getelementptr inbounds [1000 x [300 x i8]], [1000 x [300 x i8]]* %3, i64 0, i64 %127
  %129 = getelementptr inbounds [300 x i8], [300 x i8]* %128, i64 0, i64 0
  %130 = call i32 (i8*, ...) @printf(i8* getelementptr inbounds ([4 x i8], [4 x i8]* @.str.2, i64 0, i64 0), i8* %129)
  br label %131

131:                                              ; preds = %125
  %132 = load i32, i32* %4, align 4
  %133 = add nsw i32 %132, 1
  store i32 %133, i32* %4, align 4
  br label %121

134:                                              ; preds = %121
  ret i32 0
}

declare dso_local i32 @__isoc99_scanf(i8*, ...) #1

; Function Attrs: nounwind readonly
declare dso_local i64 @strlen(i8*) #2

declare dso_local i32 @printf(i8*, ...) #1


!llvm.module.flags = !{!0}
!llvm.ident = !{!1}

!0 = !{i32 1, !"wchar_size", i32 4}
!1 = !{!"clang version 10.0.0-4ubuntu1 "}
